; Function Attrs: mustprogress uwtable
define noundef zeroext i1 @_ZN32pxrInternal_v0_24__pxrReserved__19GfFindClosestPointsERKNS_6GfLineERKNS_9GfLineSegEPNS_7GfVec3dES7_PdS8_(ptr noundef nonnull align 8 dereferenceable(48) %0, ptr noundef nonnull align 8 dereferenceable(56) %1, ptr noundef writeonly %2, ptr noundef writeonly %3, ptr noundef writeonly %4, ptr noundef writeonly %5) local_unnamed_addr #0 {
  %7 = alloca %"class.pxrInternal_v0_24__pxrReserved__::GfVec3d", align 8
  %8 = alloca %"class.pxrInternal_v0_24__pxrReserved__::GfVec3d", align 8
  %9 = alloca double, align 8
  %10 = alloca double, align 8
  %11 = alloca %"class.pxrInternal_v0_24__pxrReserved__::GfVec3d", align 8
  %12 = call noundef zeroext i1 @_ZN32pxrInternal_v0_24__pxrReserved__19GfFindClosestPointsERKNS_6GfLineES2_PNS_7GfVec3dES4_PdS5_(ptr noundef nonnull align 8 dereferenceable(48) %0, ptr noundef nonnull align 8 dereferenceable(48) %1, ptr noundef nonnull %7, ptr noundef nonnull %8, ptr noundef nonnull %9, ptr noundef nonnull %10)
  br i1 %12, label %13, label %41

13:                                               ; preds = %6
  %14 = load double, ptr %10, align 8
  %15 = getelementptr inbounds nuw i8, ptr %1, i64 48
  %16 = load double, ptr %15, align 8
  %17 = fdiv double %14, %16
  %18 = fcmp olt double %17, 0.000000e+00
  %19 = fcmp ogt double %17, 1.000000e+00
  %..i = select i1 %19, double 1.000000e+00, double %17
  %.0.i = select i1 %18, double 0.000000e+00, double %..i
  store double %.0.i, ptr %10, align 8
  %20 = fmul double %16, %.0.i
  %21 = getelementptr inbounds nuw i8, ptr %1, i64 24
  %.sroa.0.0.copyload.i.i.i = load double, ptr %21, align 8, !noalias !17
  %.sroa.4.0..sroa_idx.i.i.i = getelementptr inbounds i8, ptr %1, i64 32
  %.sroa.4.0.copyload.i.i.i = load double, ptr %.sroa.4.0..sroa_idx.i.i.i, align 8, !noalias !17
  %.sroa.6.0..sroa_idx.i.i.i = getelementptr inbounds i8, ptr %1, i64 40
  %.sroa.6.0.copyload.i.i.i = load double, ptr %.sroa.6.0..sroa_idx.i.i.i, align 8, !noalias !17
  %22 = fmul double %.sroa.0.0.copyload.i.i.i, %20
  %23 = fmul double %.sroa.4.0.copyload.i.i.i, %20
  %24 = fmul double %.sroa.6.0.copyload.i.i.i, %20
  %.sroa.0.0.copyload.i2.i.i = load double, ptr %1, align 8, !noalias !24
  %.sroa.4.0..sroa_idx.i3.i.i = getelementptr inbounds i8, ptr %1, i64 8
  %.sroa.4.0.copyload.i4.i.i = load double, ptr %.sroa.4.0..sroa_idx.i3.i.i, align 8, !noalias !24
  %.sroa.6.0..sroa_idx.i5.i.i = getelementptr inbounds i8, ptr %1, i64 16
  %.sroa.6.0.copyload.i6.i.i = load double, ptr %.sroa.6.0..sroa_idx.i5.i.i, align 8, !noalias !24
  %25 = fadd double %.sroa.0.0.copyload.i2.i.i, %22
  %26 = fadd double %23, %.sroa.4.0.copyload.i4.i.i
  %27 = fadd double %24, %.sroa.6.0.copyload.i6.i.i
  store double %25, ptr %8, align 8
  %.sroa.2.0..sroa_idx = getelementptr inbounds i8, ptr %8, i64 8
  store double %26, ptr %.sroa.2.0..sroa_idx, align 8
  %.sroa.3.0..sroa_idx = getelementptr inbounds i8, ptr %8, i64 16
  store double %27, ptr %.sroa.3.0..sroa_idx, align 8
  %28 = fcmp ole double %.0.i, 0.000000e+00
  %29 = fcmp oge double %.0.i, 1.000000e+00
  %or.cond = or i1 %28, %29
  br i1 %or.cond, label %30, label %31

30:                                               ; preds = %13
  call void @_ZNK32pxrInternal_v0_24__pxrReserved__6GfLine16FindClosestPointERKNS_7GfVec3dEPd(ptr dead_on_unwind nonnull writable sret(%"class.pxrInternal_v0_24__pxrReserved__::GfVec3d") align 8 %11, ptr noundef nonnull align 8 dereferenceable(48) %0, ptr noundef nonnull align 8 dereferenceable(24) %8, ptr noundef nonnull %9)
  call void @llvm.memcpy.p0.p0.i64(ptr noundef nonnull align 8 dereferenceable(24) %7, ptr noundef nonnull align 8 dereferenceable(24) %11, i64 24, i1 false)
  br label %31

31:                                               ; preds = %13, %30
  %.not = icmp eq ptr %2, null
  br i1 %.not, label %33, label %32

32:                                               ; preds = %31
  call void @llvm.memcpy.p0.p0.i64(ptr noundef nonnull align 8 dereferenceable(24) %2, ptr noundef nonnull align 8 dereferenceable(24) %7, i64 24, i1 false)
  br label %33

33:                                               ; preds = %32, %31
  %.not19 = icmp eq ptr %3, null
  br i1 %.not19, label %35, label %34

34:                                               ; preds = %33
  call void @llvm.memcpy.p0.p0.i64(ptr noundef nonnull align 8 dereferenceable(24) %3, ptr noundef nonnull align 8 dereferenceable(24) %8, i64 24, i1 false)
  br label %35

35:                                               ; preds = %34, %33
  %.not20 = icmp eq ptr %4, null
  br i1 %.not20, label %38, label %36

36:                                               ; preds = %35
  %37 = load double, ptr %9, align 8
  store double %37, ptr %4, align 8
  br label %38

38:                                               ; preds = %36, %35
  %.not21 = icmp eq ptr %5, null
  br i1 %.not21, label %41, label %39

39:                                               ; preds = %38
  %40 = load double, ptr %10, align 8
  store double %40, ptr %5, align 8
  br label %41

41:                                               ; preds = %38, %39, %6
  ret i1 %12
}